target datalayout = "e-m:e-p270:32:32-p271:32:32-p272:64:64-i64:64-i128:128-f80:128-n8:16:32:64-S128"
target triple = "x86_64-pc-linux-gnu"

%struct.unaligned.1 = type { i32 }
%struct.unaligned.2 = type { i16 }

; Function Attrs: alwaysinline nounwind uwtable
define internal i32 @_pdep_u32(i32 noundef %0, i32 noundef %1) #2 {
  %3 = alloca i32, align 4
  %4 = alloca i32, align 4
  store i32 %0, ptr %3, align 4
  store i32 %1, ptr %4, align 4
  %5 = load i32, ptr %3, align 4
  %6 = load i32, ptr %4, align 4
  %7 = call i32 @llvm.x86.bmi.pdep.32(i32 %5, i32 %6)
  ret i32 %7
}

; Function Attrs: alwaysinline nounwind uwtable
define internal zeroext i16 @unaligned_load_u16(ptr noundef %0) #2 {
  %2 = alloca ptr, align 8
  %3 = alloca ptr, align 8
  store ptr %0, ptr %2, align 8
  call void @llvm.lifetime.start.p0(i64 8, ptr %3) #10
  %4 = load ptr, ptr %2, align 8
  store ptr %4, ptr %3, align 8
  %5 = load ptr, ptr %3, align 8
  %6 = getelementptr inbounds nuw %struct.unaligned.2, ptr %5, i32 0, i32 0
  %7 = load i16, ptr %6, align 1
  call void @llvm.lifetime.end.p0(i64 8, ptr %3) #10
  ret i16 %7
}

; Function Attrs: alwaysinline nounwind uwtable
define internal i32 @unaligned_load_u32(ptr noundef %0) #2 {
  %2 = alloca ptr, align 8
  %3 = alloca ptr, align 8
  store ptr %0, ptr %2, align 8
  call void @llvm.lifetime.start.p0(i64 8, ptr %3) #10
  %4 = load ptr, ptr %2, align 8
  store ptr %4, ptr %3, align 8
  %5 = load ptr, ptr %3, align 8
  %6 = getelementptr inbounds nuw %struct.unaligned.1, ptr %5, i32 0, i32 0
  %7 = load i32, ptr %6, align 1
  call void @llvm.lifetime.end.p0(i64 8, ptr %3) #10
  ret i32 %7
}

; Function Attrs: alwaysinline nounwind uwtable
define internal i32 @expand32(i32 noundef %0, i32 noundef %1) #2 {
  %3 = alloca i32, align 4
  %4 = alloca i32, align 4
  store i32 %0, ptr %3, align 4
  store i32 %1, ptr %4, align 4
  %5 = load i32, ptr %3, align 4
  %6 = load i32, ptr %4, align 4
  %7 = call i32 @_pdep_u32(i32 noundef %5, i32 noundef %6)
  ret i32 %7
}

; Function Attrs: alwaysinline nounwind uwtable
define internal i32 @partial_load_u32(ptr noundef %0, i32 noundef %1) #2 {
  %3 = alloca i32, align 4
  %4 = alloca ptr, align 8
  %5 = alloca i32, align 4
  %6 = alloca i32, align 4
  %7 = alloca i32, align 4
  store ptr %0, ptr %4, align 8
  store i32 %1, ptr %5, align 4
  call void @llvm.lifetime.start.p0(i64 4, ptr %6) #10
  %8 = load i32, ptr %5, align 4
  switch i32 %8, label %35 [
    i32 4, label %9
    i32 3, label %13
    i32 2, label %25
    i32 1, label %30
    i32 0, label %35
  ]

9:                                                ; preds = %2
  %10 = load ptr, ptr %4, align 8
  %11 = call i32 @unaligned_load_u32(ptr noundef %10)
  store i32 %11, ptr %6, align 4
  %12 = load i32, ptr %6, align 4
  store i32 %12, ptr %3, align 4
  store i32 1, ptr %7, align 4
  br label %36

13:                                               ; preds = %2
  %14 = load ptr, ptr %4, align 8
  %15 = call zeroext i16 @unaligned_load_u16(ptr noundef %14)
  %16 = zext i16 %15 to i32
  store i32 %16, ptr %6, align 4
  %17 = load ptr, ptr %4, align 8
  %18 = getelementptr inbounds i8, ptr %17, i64 2
  %19 = load i8, ptr %18, align 1
  %20 = zext i8 %19 to i32
  %21 = shl i32 %20, 16
  %22 = load i32, ptr %6, align 4
  %23 = or i32 %22, %21
  store i32 %23, ptr %6, align 4
  %24 = load i32, ptr %6, align 4
  store i32 %24, ptr %3, align 4
  store i32 1, ptr %7, align 4
  br label %36

25:                                               ; preds = %2
  %26 = load ptr, ptr %4, align 8
  %27 = call zeroext i16 @unaligned_load_u16(ptr noundef %26)
  %28 = zext i16 %27 to i32
  store i32 %28, ptr %6, align 4
  %29 = load i32, ptr %6, align 4
  store i32 %29, ptr %3, align 4
  store i32 1, ptr %7, align 4
  br label %36

30:                                               ; preds = %2
  %31 = load ptr, ptr %4, align 8
  %32 = load i8, ptr %31, align 1
  %33 = zext i8 %32 to i32
  store i32 %33, ptr %6, align 4
  %34 = load i32, ptr %6, align 4
  store i32 %34, ptr %3, align 4
  store i32 1, ptr %7, align 4
  br label %36

35:                                               ; preds = %2, %2
  store i32 0, ptr %3, align 4
  store i32 1, ptr %7, align 4
  br label %36

36:                                               ; preds = %35, %30, %25, %13, %9
  call void @llvm.lifetime.end.p0(i64 4, ptr %6) #10
  %37 = load i32, ptr %3, align 4
  ret i32 %37
}

; Function Attrs: nounwind uwtable
define hidden void @loadcompressed32(ptr noundef %0, ptr noundef %1, ptr noundef %2, i32 noundef %3) #0 {
  %5 = alloca ptr, align 8
  %6 = alloca ptr, align 8
  %7 = alloca ptr, align 8
  %8 = alloca i32, align 4
  %9 = alloca i32, align 4
  store ptr %0, ptr %5, align 8
  store ptr %1, ptr %6, align 8
  store ptr %2, ptr %7, align 8
  store i32 %3, ptr %8, align 4
  call void @llvm.lifetime.start.p0(i64 4, ptr %9) #10
  %10 = load ptr, ptr %6, align 8
  %11 = load i32, ptr %8, align 4
  %12 = call i32 @partial_load_u32(ptr noundef %10, i32 noundef %11)
  store i32 %12, ptr %9, align 4
  %13 = load i32, ptr %9, align 4
  %14 = load ptr, ptr %7, align 8
  %15 = load i32, ptr %14, align 4
  %16 = call i32 @expand32(i32 noundef %13, i32 noundef %15)
  %17 = load ptr, ptr %5, align 8
  store i32 %16, ptr %17, align 4
  call void @llvm.lifetime.end.p0(i64 4, ptr %9) #10
  ret void
}