; Function Attrs: mustprogress nofree norecurse nosync nounwind willreturn memory(argmem: readwrite) uwtable
define hidden void @loadcompressed32(ptr noundef writeonly captures(none) initializes((0, 4)) %0, ptr noundef readonly captures(none) %1, ptr noundef readonly captures(none) %2, i32 noundef %3) local_unnamed_addr #0 {
  switch i32 %3, label %partial_load_u32.exit [
    i32 4, label %5
    i32 3, label %7
    i32 2, label %15
    i32 1, label %18
  ]

5:                                                ; preds = %4
  %6 = load i32, ptr %1, align 1
  br label %partial_load_u32.exit

7:                                                ; preds = %4
  %8 = load i16, ptr %1, align 1
  %9 = zext i16 %8 to i32
  %10 = getelementptr inbounds nuw i8, ptr %1, i64 2
  %11 = load i8, ptr %10, align 1
  %12 = zext i8 %11 to i32
  %13 = shl nuw nsw i32 %12, 16
  %14 = or disjoint i32 %13, %9
  br label %partial_load_u32.exit

15:                                               ; preds = %4
  %16 = load i16, ptr %1, align 1
  %17 = zext i16 %16 to i32
  br label %partial_load_u32.exit

18:                                               ; preds = %4
  %19 = load i8, ptr %1, align 1
  %20 = zext i8 %19 to i32
  br label %partial_load_u32.exit

partial_load_u32.exit:                            ; preds = %4, %5, %7, %15, %18
  %.0.i = phi i32 [ %20, %18 ], [ %17, %15 ], [ %14, %7 ], [ %6, %5 ], [ 0, %4 ]
  %21 = load i32, ptr %2, align 4
  %22 = tail call i32 @llvm.x86.bmi.pdep.32(i32 %.0.i, i32 %21)
  store i32 %22, ptr %0, align 4
  ret void
}